target datalayout = "e-m:e-p270:32:32-p271:32:32-p272:64:64-i64:64-i128:128-f80:128-n8:16:32:64-S128"
target triple = "x86_64-unknown-linux-gnu"

%"class.icu_75::QuantityFormatter" = type { [8 x ptr] }

; Function Attrs: mustprogress uwtable
define linkonce_odr noundef i32 @_ZN6icu_7514StandardPlural27indexOrOtherIndexFromStringEPKc(ptr noundef %keyword) #1 comdat align 2 {
entry:
  %keyword.addr = alloca ptr, align 8
  %i = alloca i32, align 4
  store ptr %keyword, ptr %keyword.addr, align 8
  %0 = load ptr, ptr %keyword.addr, align 8
  %call = call noundef i32 @_ZN6icu_7514StandardPlural25indexOrNegativeFromStringEPKc(ptr noundef %0)
  store i32 %call, ptr %i, align 4
  %1 = load i32, ptr %i, align 4
  %cmp = icmp sge i32 %1, 0
  br i1 %cmp, label %cond.true, label %cond.false

cond.true:                                        ; preds = %entry
  %2 = load i32, ptr %i, align 4
  br label %cond.end

cond.false:                                       ; preds = %entry
  br label %cond.end

cond.end:                                         ; preds = %cond.false, %cond.true
  %cond = phi i32 [ %2, %cond.true ], [ 5, %cond.false ]
  ret i32 %cond
}

; Function Attrs: mustprogress uwtable
define noundef ptr @_ZNK6icu_7517QuantityFormatter12getByVariantEPKc(ptr noundef nonnull align 8 dereferenceable(64) %this, ptr noundef %variant) #1 align 2 {
entry:
  %this.addr = alloca ptr, align 8
  %variant.addr = alloca ptr, align 8
  %pluralIndex = alloca i32, align 4
  %pattern = alloca ptr, align 8
  store ptr %this, ptr %this.addr, align 8
  store ptr %variant, ptr %variant.addr, align 8
  %this1 = load ptr, ptr %this.addr, align 8
  %0 = load ptr, ptr %variant.addr, align 8
  %call = call noundef i32 @_ZN6icu_7514StandardPlural27indexOrOtherIndexFromStringEPKc(ptr noundef %0)
  store i32 %call, ptr %pluralIndex, align 4
  %formatters = getelementptr inbounds %"class.icu_75::QuantityFormatter", ptr %this1, i32 0, i32 0
  %1 = load i32, ptr %pluralIndex, align 4
  %idxprom = sext i32 %1 to i64
  %arrayidx = getelementptr inbounds [8 x ptr], ptr %formatters, i64 0, i64 %idxprom
  %2 = load ptr, ptr %arrayidx, align 8
  store ptr %2, ptr %pattern, align 8
  %3 = load ptr, ptr %pattern, align 8
  %cmp = icmp eq ptr %3, null
  br i1 %cmp, label %if.then, label %if.end

if.then:                                          ; preds = %entry
  %formatters2 = getelementptr inbounds %"class.icu_75::QuantityFormatter", ptr %this1, i32 0, i32 0
  %arrayidx3 = getelementptr inbounds [8 x ptr], ptr %formatters2, i64 0, i64 5
  %4 = load ptr, ptr %arrayidx3, align 8
  store ptr %4, ptr %pattern, align 8
  br label %if.end

if.end:                                           ; preds = %if.then, %entry
  %5 = load ptr, ptr %pattern, align 8
  ret ptr %5
}