; Function Attrs: mustprogress uwtable
define noundef ptr @_ZNK6icu_7517QuantityFormatter12getByVariantEPKc(ptr nocapture noundef nonnull readonly align 8 dereferenceable(64) %this, ptr noundef %variant) local_unnamed_addr #1 align 2 {
entry:
  %call.i = tail call noundef i32 @_ZN6icu_7514StandardPlural25indexOrNegativeFromStringEPKc(ptr noundef %variant)
  %cmp.i = icmp sgt i32 %call.i, -1
  %cond.i = select i1 %cmp.i, i32 %call.i, i32 5
  %idxprom = zext nneg i32 %cond.i to i64
  %arrayidx = getelementptr inbounds [8 x ptr], ptr %this, i64 0, i64 %idxprom
  %0 = load ptr, ptr %arrayidx, align 8
  %cmp = icmp eq ptr %0, null
  %arrayidx3 = getelementptr inbounds i8, ptr %this, i64 40
  %1 = load ptr, ptr %arrayidx3, align 8
  %pattern.0 = select i1 %cmp, ptr %1, ptr %0
  ret ptr %pattern.0
}